(dp0
S'METTS MARK'
p1
(dp2
S'to_messages'
p3
I807
sS'deferral_payments'
p4
S'NaN'
p5
sS'percent_from_poi'
p6
I0
sS'expenses'
p7
I94299
sS'poi'
p8
I00
sS'deferred_income'
p9
g5
sS'email_address'
p10
S'mark.metts@enron.com'
p11
sS'long_term_incentive'
p12
g5
sS'log_total_payments'
p13
cnumpy.core.multiarray
scalar
p14
(cnumpy
dtype
p15
(S'f8'
p16
I0
I1
tp17
Rp18
(I3
S'<'
p19
NNNI-1
I-1
I0
tp20
bS'%\x86\xce\xbdA\xc0+@'
p21
tp22
Rp23
sS'restricted_stock_deferred'
p24
g5
sS'shared_receipt_with_poi'
p25
I702
sS'loan_advances'
p26
g5
sS'from_messages'
p27
I29
sS'other'
p28
I1740
sS'director_fees'
p29
g5
sS'bonus'
p30
I600000
sS'percent_to_poi'
p31
I0
sS'total_stock_value'
p32
I585062
sS'from_poi_to_this_person'
p33
I38
sS'from_this_person_to_poi'
p34
I1
sS'restricted_stock'
p35
I585062
sS'salary'
p36
I365788
sS'total_payments'
p37
I1061827
sS'exercised_stock_options'
p38
I0
ssS'BAXTER JOHN C'
p39
(dp40
g3
I0
sg4
I1295738
sg6
I0
sg7
I11200
sg8
I00
sg9
I-1386055
sg10
g5
sg12
I1586055
sg13
g14
(g18
S'\xa8qXn\xba\x16/@'
p41
tp42
Rp43
sg24
g5
sg25
I0
sg26
g5
sg27
I0
sg28
I2660303
sg29
g5
sg30
I1200000
sg31
I0
sg32
I10623258
sg33
I0
sg34
I0
sg35
I3942714
sg36
I267102
sg37
I5634343
sg38
I6680544
ssS'ELLIOTT STEVEN'
p44
(dp45
g3
I0
sg4
g5
sg6
I0
sg7
I78552
sg8
I00
sg9
I-400729
sg10
S'steven.elliott@enron.com'
p46
sg12
g5
sg13
g14
(g18
S'\x89\xd2\xa2\xa4\xad\x86(@'
p47
tp48
Rp49
sg24
g5
sg25
I0
sg26
g5
sg27
I0
sg28
I12961
sg29
g5
sg30
I350000
sg31
I0
sg32
I6678735
sg33
I0
sg34
I0
sg35
I1788391
sg36
I170941
sg37
I211725
sg38
I4890344
ssS'CORDES WILLIAM R'
p50
(dp51
g3
I764
sg4
g5
sg6
I0
sg7
I0
sg8
I00
sg9
g5
sg10
S'bill.cordes@enron.com'
p52
sg12
g5
sg13
I0
sg24
g5
sg25
I58
sg26
g5
sg27
I12
sg28
I0
sg29
g5
sg30
g5
sg31
I0
sg32
I1038185
sg33
I10
sg34
I0
sg35
I386335
sg36
g5
sg37
g5
sg38
I651850
ssS'HANNON KEVIN P'
p53
(dp54
g3
I1045
sg4
g5
sg6
I0
sg7
I34039
sg8
I01
sg9
I-3117011
sg10
S'kevin.hannon@enron.com'
p55
sg12
I1617011
sg13
g14
(g18
S'/\xe7\xf4\xdfj%)@'
p56
tp57
Rp58
sg24
g5
sg25
I1035
sg26
g5
sg27
I32
sg28
I11350
sg29
g5
sg30
I1500000
sg31
I0
sg32
I6391065
sg33
I32
sg34
I21
sg35
I853064
sg36
I243293
sg37
I288682
sg38
I5538001
ssS'MORDAUNT KRISTINA M'
p59
(dp60
g3
I0
sg4
g5
sg6
I0
sg7
I35018
sg8
I00
sg9
g5
sg10
S'kristina.mordaunt@enron.com'
p61
sg12
g5
sg13
g14
(g18
S'a\xac\xe7\xd3\xc6\xb3*@'
p62
tp63
Rp64
sg24
g5
sg25
I0
sg26
g5
sg27
I0
sg28
I1411
sg29
g5
sg30
I325000
sg31
I0
sg32
I208510
sg33
I0
sg34
I0
sg35
I208510
sg36
I267093
sg37
I628522
sg38
I0
ssS'MEYER ROCKFORD G'
p65
(dp66
g3
I232
sg4
I1848227
sg6
I0
sg7
I0
sg8
I00
sg9
g5
sg10
S'rockford.meyer@enron.com'
p67
sg12
g5
sg13
g14
(g18
S'\xd5\xbb\xfe\x88\x06\xdc,@'
p68
tp69
Rp70
sg24
g5
sg25
I22
sg26
g5
sg27
I28
sg28
I0
sg29
g5
sg30
g5
sg31
I0
sg32
I955873
sg33
I0
sg34
I0
sg35
I462384
sg36
g5
sg37
I1848227
sg38
I493489
ssS'MCMAHON JEFFREY'
p71
(dp72
g3
I2355
sg4
g5
sg6
I0
sg7
I137108
sg8
I00
sg9
g5
sg10
S'jeffrey.mcmahon@enron.com'
p73
sg12
I694862
sg13
g14
(g18
S'4\xa9\xd5)\xf0s.@'
p74
tp75
Rp76
sg24
g5
sg25
I2228
sg26
g5
sg27
I48
sg28
I297353
sg29
g5
sg30
I2600000
sg31
I0
sg32
I1662855
sg33
I58
sg34
I26
sg35
I558801
sg36
I370448
sg37
I4099771
sg38
I1104054
ssS'HORTON STANLEY C'
p77
(dp78
g3
I2350
sg4
I3131860
sg6
I0
sg7
I0
sg8
I00
sg9
g5
sg10
S'stanley.horton@enron.com'
p79
sg12
g5
sg13
g14
(g18
S'\x12\x18\xb2\xf1\r\xea-@'
p80
tp81
Rp82
sg24
g5
sg25
I1074
sg26
g5
sg27
I1073
sg28
I0
sg29
g5
sg30
g5
sg31
I0
sg32
I7256648
sg33
I44
sg34
I15
sg35
I2046079
sg36
g5
sg37
I3131860
sg38
I5210569
ssS'PIPER GREGORY F'
p83
(dp84
g3
I1238
sg4
I1130036
sg6
I0
sg7
I43057
sg8
I00
sg9
I-33333
sg10
S'greg.piper@enron.com'
p85
sg12
g5
sg13
g14
(g18
S'\x06\xe4\x03\xb4n\xbc,@'
p86
tp87
Rp88
sg24
I-409554
sg25
I742
sg26
g5
sg27
I222
sg28
I778
sg29
g5
sg30
I400000
sg31
I0
sg32
I880290
sg33
I61
sg34
I48
sg35
I409554
sg36
I197091
sg37
I1737629
sg38
I880290
ssS'HUMPHREY GENE E'
p89
(dp90
g3
I128
sg4
I2964506
sg6
I0
sg7
I4994
sg8
I00
sg9
g5
sg10
S'gene.humphrey@enron.com'
p91
sg12
g5
sg13
g14
(g18
S'\xf1\x94D5\xdb\xe4-@'
p92
tp93
Rp94
sg24
g5
sg25
I119
sg26
g5
sg27
I17
sg28
I0
sg29
g5
sg30
g5
sg31
I1
sg32
I2282768
sg33
I10
sg34
I17
sg35
g5
sg36
I130724
sg37
I3100224
sg38
I2282768
ssS'UMANOFF ADAM S'
p95
(dp96
g3
I111
sg4
g5
sg6
I0
sg7
I53122
sg8
I00
sg9
g5
sg10
S'adam.umanoff@enron.com'
p97
sg12
g5
sg13
g14
(g18
S'\xe8\xb1\t_S\xe0+@'
p98
tp99
Rp100
sg24
g5
sg25
I41
sg26
g5
sg27
I18
sg28
I0
sg29
g5
sg30
I788750
sg31
I0
sg32
g5
sg33
I12
sg34
I0
sg35
g5
sg36
I288589
sg37
I1130461
sg38
I0
ssS'BLACHMAN JEREMY M'
p101
(dp102
g3
I2475
sg4
g5
sg6
I0
sg7
I84208
sg8
I00
sg9
g5
sg10
S'jeremy.blachman@enron.com'
p103
sg12
I831809
sg13
g14
(g18
S'\x9cl\xf7l7\x08-@'
p104
tp105
Rp106
sg24
g5
sg25
I2326
sg26
g5
sg27
I14
sg28
I272
sg29
g5
sg30
I850000
sg31
I0
sg32
I954354
sg33
I25
sg34
I2
sg35
I189041
sg36
I248546
sg37
I2014835
sg38
I765313
ssS'SUNDE MARTIN'
p107
(dp108
g3
I2647
sg4
g5
sg6
I0
sg7
I0
sg8
I00
sg9
g5
sg10
S'marty.sunde@enron.com'
p109
sg12
I476451
sg13
g14
(g18
S'\xc9u\x1f\x0fK\x80,@'
p110
tp111
Rp112
sg24
g5
sg25
I2565
sg26
g5
sg27
I38
sg28
I111122
sg29
g5
sg30
I700000
sg31
I0
sg32
I698920
sg33
I37
sg34
I13
sg35
I698920
sg36
I257486
sg37
I1545059
sg38
I0
ssS'GIBBS DANA R'
p113
(dp114
g3
I169
sg4
I504610
sg6
I0
sg7
I0
sg8
I00
sg9
g5
sg10
S'dana.gibbs@enron.com'
p115
sg12
I461912
sg13
g14
(g18
S'21Hp\x1b\x90+@'
p116
tp117
Rp118
sg24
g5
sg25
I23
sg26
g5
sg27
I12
sg28
I0
sg29
g5
sg30
g5
sg31
I0
sg32
I2218275
sg33
I0
sg34
I0
sg35
g5
sg36
g5
sg37
I966522
sg38
I2218275
ssS'LOWRY CHARLES P'
p119
(dp120
g3
I0
sg4
g5
sg6
I0
sg7
I0
sg8
I00
sg9
g5
sg10
g5
sg12
g5
sg13
I0
sg24
I-153686
sg25
I0
sg26
g5
sg27
I0
sg28
I0
sg29
g5
sg30
g5
sg31
I0
sg32
I372205
sg33
I0
sg34
I0
sg35
I153686
sg36
g5
sg37
g5
sg38
I372205
ssS'COLWELL WESLEY'
p121
(dp122
g3
I1758
sg4
I27610
sg6
I0
sg7
I16514
sg8
I01
sg9
I-144062
sg10
S'wes.colwell@enron.com'
p123
sg12
g5
sg13
g14
(g18
S'\x14\xeb\xa9=\xd5m,@'
p124
tp125
Rp126
sg24
g5
sg25
I1132
sg26
g5
sg27
I40
sg28
I101740
sg29
g5
sg30
I1200000
sg31
I0
sg32
I698242
sg33
I240
sg34
I11
sg35
I698242
sg36
I288542
sg37
I1490344
sg38
I0
ssS'MULLER MARK S'
p127
(dp128
g3
I136
sg4
I842924
sg6
I0
sg7
I0
sg8
I00
sg9
I-719000
sg10
S's..muller@enron.com'
p129
sg12
I1725545
sg13
g14
(g18
S'\x94[\xd2\xdcg\xf5-@'
p130
tp131
Rp132
sg24
g5
sg25
I114
sg26
g5
sg27
I16
sg28
I947
sg29
g5
sg30
I1100000
sg31
I0
sg32
I1416848
sg33
I12
sg34
I0
sg35
I360528
sg36
I251654
sg37
I3202070
sg38
I1056320
ssS'JACKSON CHARLENE R'
p133
(dp134
g3
I258
sg4
g5
sg6
I0
sg7
I10181
sg8
I00
sg9
g5
sg10
S'charlene.jackson@enron.com'
p135
sg12
g5
sg13
g14
(g18
S'\x1ea\xb3c\x8ap*@'
p136
tp137
Rp138
sg24
g5
sg25
I117
sg26
g5
sg27
I56
sg28
I2435
sg29
g5
sg30
I250000
sg31
I0
sg32
I725735
sg33
I25
sg34
I19
sg35
I540672
sg36
I288558
sg37
I551174
sg38
I185063
ssS'WESTFAHL RICHARD K'
p139
(dp140
g3
I0
sg4
g5
sg6
I0
sg7
I51870
sg8
I00
sg9
I-10800
sg10
S'dick.westfahl@enron.com'
p141
sg12
I256191
sg13
g14
(g18
S'H^eNw\x16+@'
p142
tp143
Rp144
sg24
g5
sg25
I0
sg26
g5
sg27
I0
sg28
I401130
sg29
g5
sg30
g5
sg31
I0
sg32
I384930
sg33
I0
sg34
I0
sg35
I384930
sg36
I63744
sg37
I762135
sg38
I0
ssS'WALTERS GARETH W'
p145
(dp146
g3
I0
sg4
I53625
sg6
I0
sg7
I33785
sg8
I00
sg9
g5
sg10
g5
sg12
g5
sg13
g14
(g18
S'\xac\xba\xb5\r\xb9\xc1&@'
p147
tp148
Rp149
sg24
g5
sg25
I0
sg26
g5
sg27
I0
sg28
I0
sg29
g5
sg30
g5
sg31
I0
sg32
I1030329
sg33
I0
sg34
I0
sg35
g5
sg36
g5
sg37
I87410
sg38
I1030329
ssS'WALLS JR ROBERT H'
p150
(dp151
g3
I671
sg4
g5
sg6
I0
sg7
I50936
sg8
I00
sg9
g5
sg10
S'rob.walls@enron.com'
p152
sg12
I540751
sg13
g14
(g18
S'S\xda\x14\x1b$\xce,@'
p153
tp154
Rp155
sg24
g5
sg25
I215
sg26
g5
sg27
I146
sg28
I2
sg29
g5
sg30
I850000
sg31
I0
sg32
I5898997
sg33
I17
sg34
I0
sg35
I1552453
sg36
I357091
sg37
I1798780
sg38
I4346544
ssS'KITCHEN LOUISE'
p156
(dp157
g3
I8305
sg4
g5
sg6
I0
sg7
I5774
sg8
I00
sg9
g5
sg10
S'louise.kitchen@enron.com'
p158
sg12
g5
sg13
g14
(g18
S'\xb9\x16\xc9\x85\xb7\x1e.@'
p159
tp160
Rp161
sg24
g5
sg25
I3669
sg26
g5
sg27
I1728
sg28
I93925
sg29
g5
sg30
I3100000
sg31
I0
sg32
I547143
sg33
I251
sg34
I194
sg35
I466101
sg36
I271442
sg37
I3471141
sg38
I81042
ssS'CHAN RONNIE'
p162
(dp163
g3
I0
sg4
g5
sg6
I0
sg7
I0
sg8
I00
sg9
I-98784
sg10
g5
sg12
g5
sg13
I0
sg24
I-32460
sg25
I0
sg26
g5
sg27
I0
sg28
I0
sg29
I98784
sg30
g5
sg31
I0
sg32
g5
sg33
I0
sg34
I0
sg35
I32460
sg36
g5
sg37
g5
sg38
I0
ssS'BELFER ROBERT'
p164
(dp165
g3
I0
sg4
I-102500
sg6
I0
sg7
I0
sg8
I00
sg9
g5
sg10
g5
sg12
g5
sg13
g14
(g18
S"\xeb\xb89\xadB\x13'@"
p166
tp167
Rp168
sg24
I44093
sg25
I0
sg26
g5
sg27
I0
sg28
I0
sg29
I3285
sg30
g5
sg31
I0
sg32
I-44093
sg33
I0
sg34
I0
sg35
g5
sg36
g5
sg37
I102500
sg38
I3285
ssS'SHANKMAN JEFFREY A'
p169
(dp170
g3
I3221
sg4
g5
sg6
I0
sg7
I178979
sg8
I00
sg9
g5
sg10
S'jeffrey.shankman@enron.com'
p171
sg12
I554422
sg13
g14
(g18
S'\r\xd2\t\x03\x98\xda-@'
p172
tp173
Rp174
sg24
g5
sg25
I1730
sg26
g5
sg27
I2681
sg28
I1191
sg29
g5
sg30
I2000000
sg31
I0
sg32
I2072035
sg33
I94
sg34
I83
sg35
I630137
sg36
I304110
sg37
I3038702
sg38
I1441898
ssS'WODRASKA JOHN'
p175
(dp176
g3
I0
sg4
g5
sg6
I0
sg7
I0
sg8
I00
sg9
g5
sg10
S'john.wodraska@enron.com'
p177
sg12
g5
sg13
g14
(g18
S'\xf3\xf7!A\x1fN(@'
p178
tp179
Rp180
sg24
g5
sg25
I0
sg26
g5
sg27
I0
sg28
I189583
sg29
g5
sg30
g5
sg31
I0
sg32
g5
sg33
I0
sg34
I0
sg35
g5
sg36
g5
sg37
I189583
sg38
I0
ssS'BERGSIEKER RICHARD P'
p181
(dp182
g3
I383
sg4
g5
sg6
I0
sg7
I59175
sg8
I00
sg9
I-485813
sg10
S'rick.bergsieker@enron.com'
p183
sg12
I180250
sg13
g14
(g18
S'i@\xef%\xd6\xab*@'
p184
tp185
Rp186
sg24
g5
sg25
I233
sg26
g5
sg27
I59
sg28
I427316
sg29
g5
sg30
I250000
sg31
I0
sg32
I659249
sg33
I4
sg34
I0
sg35
I659249
sg36
I187922
sg37
I618850
sg38
I0
ssS'URQUHART JOHN A'
p187
(dp188
g3
I0
sg4
g5
sg6
I0
sg7
I228656
sg8
I00
sg9
I-36666
sg10
g5
sg12
g5
sg13
g14
(g18
S'\x14\xe4r\x11\x11\xae(@'
p189
tp190
Rp191
sg24
g5
sg25
I0
sg26
g5
sg27
I0
sg28
I0
sg29
I36666
sg30
g5
sg31
I0
sg32
g5
sg33
I0
sg34
I0
sg35
g5
sg36
g5
sg37
I228656
sg38
I0
ssS'BIBI PHILIPPE A'
p192
(dp193
g3
I1607
sg4
g5
sg6
I0
sg7
I38559
sg8
I00
sg9
g5
sg10
S'philippe.bibi@enron.com'
p194
sg12
I369721
sg13
g14
(g18
S'\xa1\xa7 Oy\x10-@'
p195
tp196
Rp197
sg24
g5
sg25
I1336
sg26
g5
sg27
I40
sg28
I425688
sg29
g5
sg30
I1000000
sg31
I0
sg32
I1843816
sg33
I23
sg34
I8
sg35
I378082
sg36
I213625
sg37
I2047593
sg38
I1465734
ssS'RIEKER PAULA H'
p198
(dp199
g3
I1328
sg4
I214678
sg6
I0
sg7
I33271
sg8
I01
sg9
I-100000
sg10
S'paula.rieker@enron.com'
p200
sg12
g5
sg13
g14
(g18
S'Lt\xa5\xcf\xeb\xd1+@'
p201
tp202
Rp203
sg24
g5
sg25
I1258
sg26
g5
sg27
I82
sg28
I1950
sg29
g5
sg30
I700000
sg31
I0
sg32
I1918887
sg33
I35
sg34
I48
sg35
I283649
sg36
I249201
sg37
I1099100
sg38
I1635238
ssS'WHALEY DAVID A'
p204
(dp205
g3
I0
sg4
g5
sg6
I0
sg7
I0
sg8
I00
sg9
g5
sg10
g5
sg12
g5
sg13
I0
sg24
g5
sg25
I0
sg26
g5
sg27
I0
sg28
I0
sg29
g5
sg30
g5
sg31
I0
sg32
I98718
sg33
I0
sg34
I0
sg35
g5
sg36
g5
sg37
g5
sg38
I98718
ssS'BECK SALLY W'
p206
(dp207
g3
I7315
sg4
g5
sg6
I0
sg7
I37172
sg8
I00
sg9
g5
sg10
S'sally.beck@enron.com'
p208
sg12
g5
sg13
g14
(g18
S'\xe8\xb3\xba@t\x91+@'
p209
tp210
Rp211
sg24
g5
sg25
I2639
sg26
g5
sg27
I4343
sg28
I566
sg29
g5
sg30
I700000
sg31
I0
sg32
I126027
sg33
I144
sg34
I386
sg35
I126027
sg36
I231330
sg37
I969068
sg38
I0
ssS'HAUG DAVID L'
p212
(dp213
g3
I573
sg4
g5
sg6
I0
sg7
I475
sg8
I00
sg9
g5
sg10
S'david.haug@enron.com'
p214
sg12
g5
sg13
g14
(g18
S'0 \xf9\xfe;\xa7\x18@'
p215
tp216
Rp217
sg24
g5
sg25
I471
sg26
g5
sg27
I19
sg28
I0
sg29
g5
sg30
g5
sg31
I0
sg32
I2217299
sg33
I4
sg34
I7
sg35
I2217299
sg36
g5
sg37
I475
sg38
I0
ssS'ECHOLS JOHN B'
p218
(dp219
g3
I0
sg4
g5
sg6
I0
sg7
I21530
sg8
I00
sg9
g5
sg10
S'john.echols@enron.com'
p220
sg12
I2234774
sg13
g14
(g18
S'(\xe7\xc5\xee\xa0\x9c-@'
p221
tp222
Rp223
sg24
g5
sg25
I0
sg26
g5
sg27
I0
sg28
I53775
sg29
g5
sg30
I200000
sg31
I0
sg32
I1008941
sg33
I0
sg34
I0
sg35
I407503
sg36
I182245
sg37
I2692324
sg38
I601438
ssS'MENDELSOHN JOHN'
p224
(dp225
g3
I0
sg4
g5
sg6
I0
sg7
I148
sg8
I00
sg9
I-103750
sg10
g5
sg12
g5
sg13
g14
(g18
S'Z\xf2\xdb6%\xfd\x13@'
p226
tp227
Rp228
sg24
g5
sg25
I0
sg26
g5
sg27
I0
sg28
I0
sg29
I103750
sg30
g5
sg31
I0
sg32
g5
sg33
I0
sg34
I0
sg35
g5
sg36
g5
sg37
I148
sg38
I0
ssS'HICKERSON GARY J'
p229
(dp230
g3
I1320
sg4
g5
sg6
I0
sg7
I98849
sg8
I00
sg9
g5
sg10
S'gary.hickerson@enron.com'
p231
sg12
I69223
sg13
g14
(g18
S'H\x13\xb6\xa6\xf4\x18-@'
p232
tp233
Rp234
sg24
g5
sg25
I900
sg26
g5
sg27
I27
sg28
I1936
sg29
g5
sg30
I1700000
sg31
I0
sg32
I441096
sg33
I40
sg34
I1
sg35
I441096
sg36
I211788
sg37
I2081796
sg38
I0
ssS'CLINE KENNETH W'
p235
(dp236
g3
I0
sg4
g5
sg6
I0
sg7
I0
sg8
I00
sg9
g5
sg10
g5
sg12
g5
sg13
I0
sg24
I-472568
sg25
I0
sg26
g5
sg27
I0
sg28
I0
sg29
g5
sg30
g5
sg31
I0
sg32
I189518
sg33
I0
sg34
I0
sg35
I662086
sg36
g5
sg37
g5
sg38
I0
ssS'LEWIS RICHARD'
p237
(dp238
g3
I952
sg4
g5
sg6
I0
sg7
I0
sg8
I00
sg9
g5
sg10
S'richard.lewis@enron.com'
p239
sg12
g5
sg13
I0
sg24
g5
sg25
I739
sg26
g5
sg27
I26
sg28
I0
sg29
g5
sg30
g5
sg31
I0
sg32
I850477
sg33
I10
sg34
I0
sg35
g5
sg36
g5
sg37
g5
sg38
I850477
ssS'HAYES ROBERT E'
p240
(dp241
g3
I504
sg4
I7961
sg6
I0
sg7
I0
sg8
I00
sg9
g5
sg10
S'robert.hayes@enron.com'
p242
sg12
g5
sg13
g14
(g18
S'\xb9>\xb6R\xf1\xf6!@'
p243
tp244
Rp245
sg24
g5
sg25
I50
sg26
g5
sg27
I12
sg28
I0
sg29
g5
sg30
g5
sg31
I0
sg32
I151418
sg33
I16
sg34
I0
sg35
I151418
sg36
g5
sg37
I7961
sg38
I0
ssS'MCCARTY DANNY J'
p246
(dp247
g3
I1433
sg4
g5
sg6
I0
sg7
I0
sg8
I00
sg9
g5
sg10
S'danny.mccarty@enron.com'
p248
sg12
g5
sg13
I0
sg24
g5
sg25
I508
sg26
g5
sg27
I215
sg28
I0
sg29
g5
sg30
g5
sg31
I0
sg32
I758931
sg33
I25
sg34
I2
sg35
I94556
sg36
g5
sg37
g5
sg38
I664375
ssS'KOPPER MICHAEL J'
p249
(dp250
g3
I0
sg4
g5
sg6
I0
sg7
I118134
sg8
I01
sg9
g5
sg10
S'michael.kopper@enron.com'
p251
sg12
I602671
sg13
g14
(g18
S'\xa5\xd2\xb75\x05\x95-@'
p252
tp253
Rp254
sg24
g5
sg25
I0
sg26
g5
sg27
I0
sg28
I907502
sg29
g5
sg30
I800000
sg31
I0
sg32
I985032
sg33
I0
sg34
I0
sg35
I985032
sg36
I224305
sg37
I2652612
sg38
I0
ssS'LEFF DANIEL P'
p255
(dp256
g3
I2822
sg4
g5
sg6
I0
sg7
I0
sg8
I00
sg9
g5
sg10
S'dan.leff@enron.com'
p257
sg12
I1387399
sg13
g14
(g18
S'\x12\xfdw\xeeA\x97-@'
p258
tp259
Rp260
sg24
g5
sg25
I2672
sg26
g5
sg27
I63
sg28
I3083
sg29
g5
sg30
I1000000
sg31
I0
sg32
I360528
sg33
I67
sg34
I14
sg35
I360528
sg36
I273746
sg37
I2664228
sg38
I0
ssS'LAVORATO JOHN J'
p261
(dp262
g3
I7259
sg4
g5
sg6
I0
sg7
I49537
sg8
I00
sg9
g5
sg10
S'john.lavorato@enron.com'
p263
sg12
I2035380
sg13
g14
(g18
S'\x0fOI\xfe\xe7(0@'
p264
tp265
Rp266
sg24
g5
sg25
I3962
sg26
g5
sg27
I2585
sg28
I1552
sg29
g5
sg30
I8000000
sg31
I0
sg32
I5167144
sg33
I528
sg34
I411
sg35
I1008149
sg36
I339288
sg37
I10425757
sg38
I4158995
ssS'BERBERIAN DAVID'
p267
(dp268
g3
I0
sg4
g5
sg6
I0
sg7
I11892
sg8
I00
sg9
g5
sg10
S'david.berberian@enron.com'
p269
sg12
g5
sg13
g14
(g18
S'\xd8\xbc\xfa\xb2\xa8\xad(@'
p270
tp271
Rp272
sg24
g5
sg25
I0
sg26
g5
sg27
I0
sg28
I0
sg29
g5
sg30
g5
sg31
I0
sg32
I2493616
sg33
I0
sg34
I0
sg35
I869220
sg36
I216582
sg37
I228474
sg38
I1624396
ssS'DETMERING TIMOTHY J'
p273
(dp274
g3
I0
sg4
I875307
sg6
I0
sg7
I52255
sg8
I00
sg9
I-775241
sg10
S'timothy.detmering@enron.com'
p275
sg12
I415657
sg13
g14
(g18
S'z\xf1\xb7{\xd7\x00,@'
p276
tp277
Rp278
sg24
I-315068
sg25
I0
sg26
g5
sg27
I0
sg28
I1105
sg29
g5
sg30
I425000
sg31
I0
sg32
I2027865
sg33
I0
sg34
I0
sg35
I315068
sg36
I210500
sg37
I1204583
sg38
I2027865
ssS'WAKEHAM JOHN'
p279
(dp280
g3
I0
sg4
g5
sg6
I0
sg7
I103773
sg8
I00
sg9
g5
sg10
g5
sg12
g5
sg13
g14
(g18
S'\x9fv"E\xec\x89(@'
p281
tp282
Rp283
sg24
g5
sg25
I0
sg26
g5
sg27
I0
sg28
I0
sg29
I109298
sg30
g5
sg31
I0
sg32
g5
sg33
I0
sg34
I0
sg35
g5
sg36
g5
sg37
I213071
sg38
I0
ssS'POWERS WILLIAM'
p284
(dp285
g3
I653
sg4
g5
sg6
I0
sg7
I0
sg8
I00
sg9
I-17500
sg10
S'ken.powers@enron.com'
p286
sg12
g5
sg13
I0
sg24
g5
sg25
I12
sg26
g5
sg27
I26
sg28
I0
sg29
I17500
sg30
g5
sg31
I0
sg32
g5
sg33
I0
sg34
I0
sg35
g5
sg36
g5
sg37
g5
sg38
I0
ssS'GOLD JOSEPH'
p287
(dp288
g3
I0
sg4
g5
sg6
I0
sg7
I0
sg8
I00
sg9
g5
sg10
S'joe.gold@enron.com'
p289
sg12
I304805
sg13
g14
(g18
S'8\xeciU\xbd(-@'
p290
tp291
Rp292
sg24
g5
sg25
I0
sg26
g5
sg27
I0
sg28
I819288
sg29
g5
sg30
I750000
sg31
I0
sg32
I877611
sg33
I0
sg34
I0
sg35
I441096
sg36
I272880
sg37
I2146973
sg38
I436515
ssS'BANNANTINE JAMES M'
p293
(dp294
g3
I566
sg4
g5
sg6
I0
sg7
I56301
sg8
I00
sg9
I-5104
sg10
S'james.bannantine@enron.com'
p295
sg12
g5
sg13
g14
(g18
S'\x98\xe3\xc0\xab\xbat+@'
p296
tp297
Rp298
sg24
I-560222
sg25
I465
sg26
g5
sg27
I29
sg28
I864523
sg29
g5
sg30
g5
sg31
I0
sg32
I5243487
sg33
I39
sg34
I0
sg35
I1757552
sg36
I477
sg37
I916197
sg38
I4046157
ssS'DUNCAN JOHN H'
p299
(dp300
g3
I0
sg4
g5
sg6
I0
sg7
I0
sg8
I00
sg9
I-25000
sg10
g5
sg12
g5
sg13
g14
(g18
S'\xfe\xa6\x1df\x0f\x84&@'
p301
tp302
Rp303
sg24
g5
sg25
I0
sg26
g5
sg27
I0
sg28
I0
sg29
I102492
sg30
g5
sg31
I0
sg32
I371750
sg33
I0
sg34
I0
sg35
g5
sg36
g5
sg37
I77492
sg38
I371750
ssS'SHAPIRO RICHARD S'
p304
(dp305
g3
I15149
sg4
g5
sg6
I0
sg7
I137767
sg8
I00
sg9
g5
sg10
S'richard.shapiro@enron.com'
p306
sg12
g5
sg13
g14
(g18
S'\x19ofy0\xbe+@'
p307
tp308
Rp309
sg24
g5
sg25
I4527
sg26
g5
sg27
I1215
sg28
I705
sg29
g5
sg30
I650000
sg31
I0
sg32
I987001
sg33
I74
sg34
I65
sg35
I379164
sg36
I269076
sg37
I1057548
sg38
I607837
ssS'SHERRIFF JOHN R'
p310
(dp311
g3
I3187
sg4
g5
sg6
I0
sg7
I0
sg8
I00
sg9
g5
sg10
S'john.sherriff@enron.com'
p312
sg12
I554422
sg13
g14
(g18
S'\x94\xfc7w\x8c\x90.@'
p313
tp314
Rp315
sg24
g5
sg25
I2103
sg26
g5
sg27
I92
sg28
I1852186
sg29
g5
sg30
I1500000
sg31
I0
sg32
I3128982
sg33
I28
sg34
I23
sg35
I1293424
sg36
I428780
sg37
I4335388
sg38
I1835558
ssS'SHELBY REX'
p316
(dp317
g3
I225
sg4
g5
sg6
I0
sg7
I22884
sg8
I01
sg9
I-4167
sg10
S'rex.shelby@enron.com'
p318
sg12
g5
sg13
g14
(g18
S'\xefO\xc2%m\x05-@'
p319
tp320
Rp321
sg24
g5
sg25
I91
sg26
g5
sg27
I39
sg28
I1573324
sg29
g5
sg30
I200000
sg31
I0
sg32
I2493616
sg33
I13
sg34
I14
sg35
I869220
sg36
I211844
sg37
I2003885
sg38
I1624396
ssS'LEMAISTRE CHARLES'
p322
(dp323
g3
I0
sg4
g5
sg6
I0
sg7
I0
sg8
I00
sg9
I-25000
sg10
g5
sg12
g5
sg13
g14
(g18
S'i\xb0\xa0\xf43\xc2&@'
p324
tp325
Rp326
sg24
g5
sg25
I0
sg26
g5
sg27
I0
sg28
I0
sg29
I112492
sg30
g5
sg31
I0
sg32
I412878
sg33
I0
sg34
I0
sg35
g5
sg36
g5
sg37
I87492
sg38
I412878
ssS'DEFFNER JOSEPH M'
p327
(dp328
g3
I714
sg4
g5
sg6
I0
sg7
I41626
sg8
I00
sg9
g5
sg10
S'joseph.deffner@enron.com'
p329
sg12
I335349
sg13
g14
(g18
S'\xf6>\x08*\x91\x02,@'
p330
tp331
Rp332
sg24
g5
sg25
I552
sg26
g5
sg27
I74
sg28
I25553
sg29
g5
sg30
I600000
sg31
I0
sg32
I159211
sg33
I115
sg34
I4
sg35
I141833
sg36
I206121
sg37
I1208649
sg38
I17378
ssS'KISHKILL JOSEPH G'
p333
(dp334
g3
I0
sg4
g5
sg6
I0
sg7
I116335
sg8
I00
sg9
I-51042
sg10
S'joe.kishkill@enron.com'
p335
sg12
g5
sg13
g14
(g18
S'\xb3l\xc2\x10~\xee*@'
p336
tp337
Rp338
sg24
g5
sg25
I0
sg26
g5
sg27
I0
sg28
I465357
sg29
g5
sg30
g5
sg31
I0
sg32
I1034346
sg33
I0
sg34
I0
sg35
I1034346
sg36
I174246
sg37
I704896
sg38
I0
ssS'WHALLEY LAWRENCE G'
p339
(dp340
g3
I6019
sg4
g5
sg6
I0
sg7
I57838
sg8
I00
sg9
g5
sg10
S'greg.whalley@enron.com'
p341
sg12
I808346
sg13
g14
(g18
S'\xa66\xb9\xceq\xb7.@'
p342
tp343
Rp344
sg24
g5
sg25
I3920
sg26
g5
sg27
I556
sg28
I301026
sg29
g5
sg30
I3000000
sg31
I0
sg32
I6079137
sg33
I186
sg34
I24
sg35
I2796177
sg36
I510364
sg37
I4677574
sg38
I3282960
ssS'MCCONNELL MICHAEL S'
p345
(dp346
g3
I3329
sg4
g5
sg6
I0
sg7
I81364
sg8
I00
sg9
g5
sg10
S'mike.mcconnell@enron.com'
p347
sg12
I554422
sg13
g14
(g18
S'\xb5q\x12\xeb\xbe\x1d-@'
p348
tp349
Rp350
sg24
g5
sg25
I2189
sg26
g5
sg27
I2742
sg28
I540
sg29
g5
sg30
I1100000
sg31
I0
sg32
I3101279
sg33
I92
sg34
I194
sg35
I1478269
sg36
I365038
sg37
I2101364
sg38
I1623010
ssS'PIRO JIM'
p351
(dp352
g3
I58
sg4
g5
sg6
I0
sg7
I0
sg8
I00
sg9
g5
sg10
S'jim.piro@enron.com'
p353
sg12
g5
sg13
I0
sg24
g5
sg25
I3
sg26
g5
sg27
I16
sg28
I0
sg29
g5
sg30
g5
sg31
I0
sg32
I47304
sg33
I0
sg34
I1
sg35
I47304
sg36
g5
sg37
g5
sg38
I0
ssS'DELAINEY DAVID W'
p354
(dp355
g3
I3093
sg4
g5
sg6
I0
sg7
I86174
sg8
I01
sg9
g5
sg10
S'david.delainey@enron.com'
p356
sg12
I1294981
sg13
g14
(g18
S'D\x0c\xa1\xf3\x17\xbf.@'
p357
tp358
Rp359
sg24
g5
sg25
I2097
sg26
g5
sg27
I3069
sg28
I1661
sg29
g5
sg30
I3000000
sg31
I0
sg32
I3614261
sg33
I66
sg34
I609
sg35
I1323148
sg36
I365163
sg37
I4747979
sg38
I2291113
ssS'SULLIVAN-SHAKLOVITZ COLLEEN'
p360
(dp361
g3
I0
sg4
I181993
sg6
I0
sg7
I0
sg8
I00
sg9
g5
sg10
g5
sg12
I554422
sg13
g14
(g18
S'\x1f\x14\x8c)6\xa1+@'
p362
tp363
Rp364
sg24
g5
sg25
I0
sg26
g5
sg27
I0
sg28
I162
sg29
g5
sg30
I100000
sg31
I0
sg32
I1362375
sg33
I0
sg34
I0
sg35
g5
sg36
I162779
sg37
I999356
sg38
I1362375
ssS'WROBEL BRUCE'
p365
(dp366
g3
I0
sg4
g5
sg6
I0
sg7
I0
sg8
I00
sg9
g5
sg10
g5
sg12
g5
sg13
I0
sg24
g5
sg25
I0
sg26
g5
sg27
I0
sg28
I0
sg29
g5
sg30
g5
sg31
I0
sg32
I139130
sg33
I0
sg34
I0
sg35
g5
sg36
g5
sg37
g5
sg38
I139130
ssS'LINDHOLM TOD A'
p367
(dp368
g3
I0
sg4
I204075
sg6
I0
sg7
I57727
sg8
I00
sg9
g5
sg10
S'tod.lindholm@enron.com'
p369
sg12
I175000
sg13
g14
(g18
S'ej\x86y\xb1]+@'
p370
tp371
Rp372
sg24
g5
sg25
I0
sg26
g5
sg27
I0
sg28
I2630
sg29
g5
sg30
I200000
sg31
I0
sg32
I3064208
sg33
I0
sg34
I0
sg35
I514847
sg36
I236457
sg37
I875889
sg38
I2549361
ssS'MEYER JEROME J'
p373
(dp374
g3
I0
sg4
g5
sg6
I0
sg7
I2151
sg8
I00
sg9
I-38346
sg10
g5
sg12
g5
sg13
g14
(g18
S'\x1f\xa2\x0bM\xdb\xb1\x1e@'
p375
tp376
Rp377
sg24
g5
sg25
I0
sg26
g5
sg27
I0
sg28
I0
sg29
I38346
sg30
g5
sg31
I0
sg32
g5
sg33
I0
sg34
I0
sg35
g5
sg36
g5
sg37
I2151
sg38
I0
ssS'LAY KENNETH L'
p378
(dp379
g3
I4273
sg4
I202911
sg6
I0
sg7
I99832
sg8
I01
sg9
I-300000
sg10
S'kenneth.lay@enron.com'
p380
sg12
I3600000
sg13
g14
(g18
S'\xe2\xc0q\x1d\xa6t2@'
p381
tp382
Rp383
sg24
g5
sg25
I2411
sg26
I81525000
sg27
I36
sg28
I10359729
sg29
g5
sg30
I7000000
sg31
I0
sg32
I49110078
sg33
I123
sg34
I16
sg35
I14761694
sg36
I1072321
sg37
I103559793
sg38
I34348384
ssS'BUTTS ROBERT H'
p384
(dp385
g3
I0
sg4
g5
sg6
I0
sg7
I9410
sg8
I00
sg9
I-75000
sg10
S'bob.butts@enron.com'
p386
sg12
I175000
sg13
g14
(g18
S'\xb88\x9c1\x8e\x1c,@'
p387
tp388
Rp389
sg24
g5
sg25
I0
sg26
g5
sg27
I0
sg28
I150656
sg29
g5
sg30
I750000
sg31
I0
sg32
I417619
sg33
I0
sg34
I0
sg35
I417619
sg36
I261516
sg37
I1271582
sg38
I0
ssS'OLSON CINDY K'
p390
(dp391
g3
I1184
sg4
I77716
sg6
I0
sg7
I63791
sg8
I00
sg9
g5
sg10
S'cindy.olson@enron.com'
p392
sg12
I100000
sg13
g14
(g18
S'7Uq\xdcJ0,@'
p393
tp394
Rp395
sg24
g5
sg25
I856
sg26
g5
sg27
I52
sg28
I972
sg29
g5
sg30
I750000
sg31
I0
sg32
I2606763
sg33
I20
sg34
I15
sg35
I969729
sg36
I329078
sg37
I1321557
sg38
I1637034
ssS'MCDONALD REBECCA'
p396
(dp397
g3
I894
sg4
g5
sg6
I0
sg7
I0
sg8
I00
sg9
g5
sg10
S'rebecca.mcdonald@enron.com'
p398
sg12
g5
sg13
I0
sg24
g5
sg25
I720
sg26
g5
sg27
I13
sg28
I0
sg29
g5
sg30
g5
sg31
I0
sg32
I1691366
sg33
I54
sg34
I1
sg35
I934065
sg36
g5
sg37
g5
sg38
I757301
ssS'CUMBERLAND MICHAEL S'
p399
(dp400
g3
I0
sg4
g5
sg6
I0
sg7
I22344
sg8
I00
sg9
g5
sg10
g5
sg12
I275000
sg13
g14
(g18
S'\x06T\xdf\xcc[4+@'
p401
tp402
Rp403
sg24
g5
sg25
I0
sg26
g5
sg27
I0
sg28
I713
sg29
g5
sg30
I325000
sg31
I0
sg32
I207940
sg33
I0
sg34
I0
sg35
I207940
sg36
I184899
sg37
I807956
sg38
I0
ssS'GAHN ROBERT S'
p404
(dp405
g3
I0
sg4
I73122
sg6
I0
sg7
I50080
sg8
I00
sg9
I-1042
sg10
g5
sg12
g5
sg13
g14
(g18
S'\xc4\x90\x99\xf4\xedk+@'
p406
tp407
Rp408
sg24
g5
sg25
I0
sg26
g5
sg27
I0
sg28
I76547
sg29
g5
sg30
I509870
sg31
I0
sg32
I318607
sg33
I0
sg34
I0
sg35
I235370
sg36
I192008
sg37
I900585
sg38
I83237
ssS'MCCLELLAN GEORGE'
p409
(dp410
g3
I1744
sg4
g5
sg6
I0
sg7
I228763
sg8
I00
sg9
I-125000
sg10
S'george.mcclellan@enron.com'
p411
sg12
g5
sg13
g14
(g18
S'<\xf1yu5/,@'
p412
tp413
Rp414
sg24
g5
sg25
I1469
sg26
g5
sg27
I49
sg28
I51587
sg29
g5
sg30
I900000
sg31
I0
sg32
I947861
sg33
I52
sg34
I0
sg35
I441096
sg36
I263413
sg37
I1318763
sg38
I506765
ssS'HERMANN ROBERT J'
p415
(dp416
g3
I0
sg4
g5
sg6
I0
sg7
I48357
sg8
I00
sg9
I-280000
sg10
S'robert.hermann@enron.com'
p417
sg12
I150000
sg13
g14
(g18
S'@y\xf7\xf6\xde&,@'
p418
tp419
Rp420
sg24
g5
sg25
I0
sg26
g5
sg27
I0
sg28
I416441
sg29
g5
sg30
I700000
sg31
I0
sg32
I668132
sg33
I0
sg34
I0
sg35
I480632
sg36
I262663
sg37
I1297461
sg38
I187500
ssS'SCRIMSHAW MATTHEW'
p421
(dp422
g3
I0
sg4
g5
sg6
I0
sg7
I0
sg8
I00
sg9
g5
sg10
S'matthew.scrimshaw@enron.com'
p423
sg12
g5
sg13
I0
sg24
g5
sg25
I0
sg26
g5
sg27
I0
sg28
I0
sg29
g5
sg30
g5
sg31
I0
sg32
I759557
sg33
I0
sg34
I0
sg35
g5
sg36
g5
sg37
g5
sg38
I759557
ssS'GATHMANN WILLIAM D'
p424
(dp425
g3
I0
sg4
g5
sg6
I0
sg7
I0
sg8
I00
sg9
g5
sg10
g5
sg12
g5
sg13
I0
sg24
I-72419
sg25
I0
sg26
g5
sg27
I0
sg28
I0
sg29
g5
sg30
g5
sg31
I0
sg32
I1945360
sg33
I0
sg34
I0
sg35
I264013
sg36
g5
sg37
g5
sg38
I1753766
ssS'HAEDICKE MARK E'
p426
(dp427
g3
I4009
sg4
I2157527
sg6
I0
sg7
I76169
sg8
I00
sg9
I-934484
sg10
S'mark.haedicke@enron.com'
p428
sg12
I983346
sg13
g14
(g18
S'\xba\x14\xeb~\xf5T.@'
p429
tp430
Rp431
sg24
I-329825
sg25
I1847
sg26
g5
sg27
I1941
sg28
I52382
sg29
g5
sg30
I1150000
sg31
I0
sg32
I803094
sg33
I180
sg34
I61
sg35
I524169
sg36
I374125
sg37
I3859065
sg38
I608750
ssS'BOWEN JR RAYMOND M'
p432
(dp433
g3
I1858
sg4
g5
sg6
I0
sg7
I65907
sg8
I01
sg9
I-833
sg10
S'raymond.bowen@enron.com'
p434
sg12
I974293
sg13
g14
(g18
S'|\x9e]iI\x98-@'
p435
tp436
Rp437
sg24
g5
sg25
I1593
sg26
g5
sg27
I27
sg28
I1621
sg29
g5
sg30
I1350000
sg31
I0
sg32
I252055
sg33
I140
sg34
I15
sg35
I252055
sg36
I278601
sg37
I2669589
sg38
I0
ssS'GILLIS JOHN'
p438
(dp439
g3
I0
sg4
g5
sg6
I0
sg7
I0
sg8
I00
sg9
g5
sg10
g5
sg12
g5
sg13
I0
sg24
g5
sg25
I0
sg26
g5
sg27
I0
sg28
I0
sg29
g5
sg30
g5
sg31
I0
sg32
I85641
sg33
I0
sg34
I0
sg35
I75838
sg36
g5
sg37
g5
sg38
I9803
ssS'FITZGERALD JAY L'
p440
(dp441
g3
I936
sg4
g5
sg6
I0
sg7
I23870
sg8
I00
sg9
g5
sg10
S'jay.fitzgerald@enron.com'
p442
sg12
I556416
sg13
g14
(g18
S'\x00\xcb\x9fP8S,@'
p443
tp444
Rp445
sg24
g5
sg25
I723
sg26
g5
sg27
I16
sg28
I285414
sg29
g5
sg30
I350000
sg31
I0
sg32
I1621236
sg33
I1
sg34
I8
sg35
I956775
sg36
I199157
sg37
I1414857
sg38
I664461
ssS'MORAN MICHAEL P'
p446
(dp447
g3
I672
sg4
g5
sg6
I0
sg7
I0
sg8
I00
sg9
g5
sg10
S'michael.moran@enron.com'
p448
sg12
g5
sg13
I0
sg24
g5
sg25
I127
sg26
g5
sg27
I19
sg28
I0
sg29
g5
sg30
g5
sg31
I0
sg32
I221141
sg33
I0
sg34
I0
sg35
I161602
sg36
g5
sg37
g5
sg38
I59539
ssS'REDMOND BRIAN L'
p449
(dp450
g3
I1671
sg4
g5
sg6
I0
sg7
I14689
sg8
I00
sg9
g5
sg10
S'brian.redmond@enron.com'
p451
sg12
g5
sg13
g14
(g18
S".\xd0c\x04|>'@"
p452
tp453
Rp454
sg24
g5
sg25
I1063
sg26
g5
sg27
I221
sg28
I0
sg29
g5
sg30
g5
sg31
I0
sg32
I7890324
sg33
I204
sg34
I49
sg35
I381285
sg36
I96840
sg37
I111529
sg38
I7509039
ssS'BAZELIDES PHILIP J'
p455
(dp456
g3
I0
sg4
I684694
sg6
I0
sg7
I0
sg8
I00
sg9
g5
sg10
g5
sg12
I93750
sg13
g14
(g18
S'\xbe\x10\x07\xabfT+@'
p457
tp458
Rp459
sg24
g5
sg25
I0
sg26
g5
sg27
I0
sg28
I874
sg29
g5
sg30
g5
sg31
I0
sg32
I1599641
sg33
I0
sg34
I0
sg35
g5
sg36
I80818
sg37
I860136
sg38
I1599641
ssS'BELDEN TIMOTHY N'
p460
(dp461
g3
I7991
sg4
I2144013
sg6
I0
sg7
I17355
sg8
I01
sg9
I-2334434
sg10
S'tim.belden@enron.com'
p462
sg12
g5
sg13
g14
(g18
S'\xb8AW.\x86\n/@'
p463
tp464
Rp465
sg24
g5
sg25
I5521
sg26
g5
sg27
I484
sg28
I210698
sg29
g5
sg30
I5249999
sg31
I0
sg32
I1110705
sg33
I228
sg34
I108
sg35
I157569
sg36
I213999
sg37
I5501630
sg38
I953136
ssS'DURAN WILLIAM D'
p466
(dp467
g3
I904
sg4
g5
sg6
I0
sg7
I25785
sg8
I00
sg9
g5
sg10
S'w.duran@enron.com'
p468
sg12
I1105218
sg13
g14
(g18
S'\xceJ\xe4\xa4\xc4\x1b-@'
p469
tp470
Rp471
sg24
g5
sg25
I599
sg26
g5
sg27
I12
sg28
I1568
sg29
g5
sg30
I750000
sg31
I0
sg32
I1640910
sg33
I106
sg34
I3
sg35
I189041
sg36
I210692
sg37
I2093263
sg38
I1451869
ssS'THORN TERENCE H'
p472
(dp473
g3
I266
sg4
I16586
sg6
I0
sg7
I46145
sg8
I00
sg9
g5
sg10
S'terence.thorn@enron.com'
p474
sg12
I200000
sg13
g14
(g18
S'\xf6\xae\x06:\x12r+@'
p475
tp476
Rp477
sg24
g5
sg25
I73
sg26
g5
sg27
I41
sg28
I426629
sg29
g5
sg30
g5
sg31
I0
sg32
I4817796
sg33
I0
sg34
I0
sg35
I365320
sg36
I222093
sg37
I911453
sg38
I4452476
ssS'FASTOW ANDREW S'
p478
(dp479
g3
I0
sg4
g5
sg6
I0
sg7
I55921
sg8
I01
sg9
I-1386055
sg10
S'andrew.fastow@enron.com'
p480
sg12
I1736055
sg13
g14
(g18
S'p\xabd\xbc\xe4f-@'
p481
tp482
Rp483
sg24
g5
sg25
I0
sg26
g5
sg27
I0
sg28
I277464
sg29
g5
sg30
I1300000
sg31
I0
sg32
I1794412
sg33
I0
sg34
I0
sg35
I1794412
sg36
I440698
sg37
I2424083
sg38
I0
ssS'FOY JOE'
p484
(dp485
g3
I57
sg4
I181755
sg6
I0
sg7
I0
sg8
I00
sg9
g5
sg10
S'tracy.foy@enron.com'
p486
sg12
g5
sg13
g14
(g18
S's\xccnM\x888(@'
p487
tp488
Rp489
sg24
g5
sg25
I2
sg26
g5
sg27
I13
sg28
I0
sg29
g5
sg30
g5
sg31
I0
sg32
I343434
sg33
I0
sg34
I0
sg35
g5
sg36
g5
sg37
I181755
sg38
I343434
ssS'CALGER CHRISTOPHER F'
p490
(dp491
g3
I2598
sg4
g5
sg6
I0
sg7
I35818
sg8
I01
sg9
I-262500
sg10
S'christopher.calger@enron.com'
p492
sg12
I375304
sg13
g14
(g18
S'\xca\x11~:\x9b\x9e,@'
p493
tp494
Rp495
sg24
g5
sg25
I2188
sg26
g5
sg27
I144
sg28
I486
sg29
g5
sg30
I1250000
sg31
I0
sg32
I126027
sg33
I199
sg34
I25
sg35
I126027
sg36
I240189
sg37
I1639297
sg38
I0
ssS'RICE KENNETH D'
p496
(dp497
g3
I905
sg4
g5
sg6
I0
sg7
I46950
sg8
I01
sg9
I-3504386
sg10
S'ken.rice@enron.com'
p498
sg12
I1617011
sg13
g14
(g18
S'\x9c\x07b\x99\xcbC*@'
p499
tp500
Rp501
sg24
g5
sg25
I864
sg26
g5
sg27
I18
sg28
I174839
sg29
g5
sg30
I1750000
sg31
I0
sg32
I22542539
sg33
I42
sg34
I4
sg35
I2748364
sg36
I420636
sg37
I505050
sg38
I19794175
ssS'KAMINSKI WINCENTY J'
p502
(dp503
g3
I4607
sg4
g5
sg6
I0
sg7
I83585
sg8
I00
sg9
g5
sg10
S'vince.kaminski@enron.com'
p504
sg12
I323466
sg13
g14
(g18
S'\xff$C@+\xcc+@'
p505
tp506
Rp507
sg24
g5
sg25
I583
sg26
g5
sg27
I14368
sg28
I4669
sg29
g5
sg30
I400000
sg31
I0
sg32
I976037
sg33
I41
sg34
I171
sg35
I126027
sg36
I275101
sg37
I1086821
sg38
I850010
ssS'LOCKHART EUGENE E'
p508
(dp509
g3
I0
sg4
g5
sg6
I0
sg7
I0
sg8
I00
sg9
g5
sg10
g5
sg12
g5
sg13
I0
sg24
g5
sg25
I0
sg26
g5
sg27
I0
sg28
I0
sg29
g5
sg30
g5
sg31
I0
sg32
g5
sg33
I0
sg34
I0
sg35
g5
sg36
g5
sg37
g5
sg38
I0
ssS'COX DAVID'
p510
(dp511
g3
I102
sg4
g5
sg6
I0
sg7
I27861
sg8
I00
sg9
I-41250
sg10
S'chip.cox@enron.com'
p512
sg12
g5
sg13
g14
(g18
S'bX\xbd\xf9\xfc\xd2+@'
p513
tp514
Rp515
sg24
g5
sg25
I71
sg26
g5
sg27
I33
sg28
I494
sg29
g5
sg30
I800000
sg31
I0
sg32
I495633
sg33
I0
sg34
I4
sg35
I378082
sg36
I314288
sg37
I1101393
sg38
I117551
ssS'OVERDYKE JR JERE C'
p516
(dp517
g3
I0
sg4
g5
sg6
I0
sg7
I18834
sg8
I00
sg9
g5
sg10
S'jere.overdyke@enron.com'
p518
sg12
I135836
sg13
g14
(g18
S'"\xf1 \x81R\xdb(@'
p519
tp520
Rp521
sg24
g5
sg25
I0
sg26
g5
sg27
I0
sg28
I176
sg29
g5
sg30
g5
sg31
I0
sg32
I7307594
sg33
I0
sg34
I0
sg35
I2041016
sg36
I94941
sg37
I249787
sg38
I5266578
ssS'PEREIRA PAULO V. FERRAZ'
p522
(dp523
g3
I0
sg4
g5
sg6
I0
sg7
I27942
sg8
I00
sg9
I-101250
sg10
g5
sg12
g5
sg13
g14
(g18
S'\xeb9\xbb8\xccy$@'
p524
tp525
Rp526
sg24
g5
sg25
I0
sg26
g5
sg27
I0
sg28
I0
sg29
I101250
sg30
g5
sg31
I0
sg32
g5
sg33
I0
sg34
I0
sg35
g5
sg36
g5
sg37
I27942
sg38
I0
ssS'STABLER FRANK'
p527
(dp528
g3
I0
sg4
g5
sg6
I0
sg7
I16514
sg8
I00
sg9
g5
sg10
S'frank.stabler@enron.com'
p529
sg12
g5
sg13
g14
(g18
S'\x8db\xbe{\xef\xd7+@'
p530
tp531
Rp532
sg24
g5
sg25
I0
sg26
g5
sg27
I0
sg28
I356071
sg29
g5
sg30
I500000
sg31
I0
sg32
I511734
sg33
I0
sg34
I0
sg35
I511734
sg36
I239502
sg37
I1112087
sg38
I0
ssS'SKILLING JEFFREY K'
p533
(dp534
g3
I3627
sg4
g5
sg6
I0
sg7
I29336
sg8
I01
sg9
g5
sg10
S'jeff.skilling@enron.com'
p535
sg12
I1920000
sg13
g14
(g18
S'\xbd\x03%\x05%\xf4/@'
p536
tp537
Rp538
sg24
g5
sg25
I2042
sg26
g5
sg27
I108
sg28
I22122
sg29
g5
sg30
I5600000
sg31
I0
sg32
I26093672
sg33
I88
sg34
I30
sg35
I6843672
sg36
I1111258
sg37
I8682716
sg38
I19250000
ssS'BLAKE JR. NORMAN P'
p539
(dp540
g3
I0
sg4
g5
sg6
I0
sg7
I1279
sg8
I00
sg9
I-113784
sg10
g5
sg12
g5
sg13
g14
(g18
S'\xb23\xab\x9b\x86\x9d\x1c@'
p541
tp542
Rp543
sg24
g5
sg25
I0
sg26
g5
sg27
I0
sg28
I0
sg29
I113784
sg30
g5
sg31
I0
sg32
g5
sg33
I0
sg34
I0
sg35
g5
sg36
g5
sg37
I1279
sg38
I0
ssS'SHERRICK JEFFREY B'
p544
(dp545
g3
I613
sg4
g5
sg6
I0
sg7
I0
sg8
I00
sg9
g5
sg10
S'jeffrey.sherrick@enron.com'
p546
sg12
g5
sg13
I0
sg24
g5
sg25
I583
sg26
g5
sg27
I25
sg28
I0
sg29
g5
sg30
g5
sg31
I0
sg32
I1832468
sg33
I39
sg34
I18
sg35
I405999
sg36
g5
sg37
g5
sg38
I1426469
ssS'PRENTICE JAMES'
p547
(dp548
g3
I0
sg4
I564348
sg6
I0
sg7
I0
sg8
I00
sg9
g5
sg10
S'james.prentice@enron.com'
p549
sg12
g5
sg13
g14
(g18
S'G\x0fKa\xa2|*@'
p550
tp551
Rp552
sg24
g5
sg25
I0
sg26
g5
sg27
I0
sg28
I0
sg29
g5
sg30
g5
sg31
I0
sg32
I1095040
sg33
I0
sg34
I0
sg35
I208809
sg36
g5
sg37
I564348
sg38
I886231
ssS'GRAY RODNEY'
p553
(dp554
g3
I0
sg4
I93585
sg6
I0
sg7
I0
sg8
I00
sg9
g5
sg10
g5
sg12
I365625
sg13
g14
(g18
S'+\xaf\x17\x04\x9c\xe7+@'
p555
tp556
Rp557
sg24
g5
sg25
I0
sg26
g5
sg27
I0
sg28
I680833
sg29
g5
sg30
g5
sg31
I0
sg32
g5
sg33
I0
sg34
I0
sg35
g5
sg36
I6615
sg37
I1146658
sg38
I0
ssS'PICKERING MARK R'
p558
(dp559
g3
I898
sg4
g5
sg6
I0
sg7
I31653
sg8
I00
sg9
g5
sg10
S'mark.pickering@enron.com'
p560
sg12
g5
sg13
g14
(g18
S'\xbc=w\x9b\xecH,@'
p561
tp562
Rp563
sg24
g5
sg25
I728
sg26
I400000
sg27
I67
sg28
I0
sg29
g5
sg30
I300000
sg31
I0
sg32
I28798
sg33
I7
sg34
I0
sg35
g5
sg36
I655037
sg37
I1386690
sg38
I28798
ssS'NOLES JAMES L'
p564
(dp565
g3
I0
sg4
I774401
sg6
I0
sg7
I0
sg8
I00
sg9
g5
sg10
g5
sg12
g5
sg13
g14
(g18
S'\xe2y\x8c\x04\xa4\x1e+@'
p566
tp567
Rp568
sg24
I-94556
sg25
I0
sg26
g5
sg27
I0
sg28
I0
sg29
g5
sg30
g5
sg31
I0
sg32
I368705
sg33
I0
sg34
I0
sg35
I463261
sg36
g5
sg37
I774401
sg38
I0
ssS'KEAN STEVEN J'
p569
(dp570
g3
I12754
sg4
g5
sg6
I0
sg7
I41953
sg8
I00
sg9
g5
sg10
S'steven.kean@enron.com'
p571
sg12
I300000
sg13
g14
(g18
S'\x17\xd8\xb7\xd4V\xbf,@'
p572
tp573
Rp574
sg24
g5
sg25
I3639
sg26
g5
sg27
I6759
sg28
I1231
sg29
g5
sg30
I1000000
sg31
I0
sg32
I6153642
sg33
I140
sg34
I387
sg35
I4131594
sg36
I404338
sg37
I1747522
sg38
I2022048
ssS'FOWLER PEGGY'
p575
(dp576
g3
I517
sg4
g5
sg6
I0
sg7
I0
sg8
I00
sg9
g5
sg10
S'kulvinder.fowler@enron.com'
p577
sg12
g5
sg13
I0
sg24
g5
sg25
I10
sg26
g5
sg27
I36
sg28
I0
sg29
g5
sg30
g5
sg31
I0
sg32
I1884748
sg33
I0
sg34
I0
sg35
I560170
sg36
g5
sg37
g5
sg38
I1324578
ssS'WASAFF GEORGE'
p578
(dp579
g3
I400
sg4
I831299
sg6
I0
sg7
I0
sg8
I00
sg9
I-583325
sg10
S'george.wasaff@enron.com'
p580
sg12
I200000
sg13
g14
(g18
S'\x9b\xc37\x06\xdb\xb2+@'
p581
tp582
Rp583
sg24
g5
sg25
I337
sg26
g5
sg27
I30
sg28
I1425
sg29
g5
sg30
I325000
sg31
I0
sg32
I2056427
sg33
I22
sg34
I7
sg35
I388167
sg36
I259996
sg37
I1034395
sg38
I1668260
ssS'WHITE JR THOMAS E'
p584
(dp585
g3
I0
sg4
g5
sg6
I0
sg7
I81353
sg8
I00
sg9
g5
sg10
S'thomas.white@enron.com'
p586
sg12
g5
sg13
g14
(g18
S'\xd91\xac\xc2X\xf3,@'
p587
tp588
Rp589
sg24
g5
sg25
I0
sg26
g5
sg27
I0
sg28
I1085463
sg29
g5
sg30
I450000
sg31
I0
sg32
I15144123
sg33
I0
sg34
I0
sg35
I13847074
sg36
I317543
sg37
I1934359
sg38
I1297049
ssS'CHRISTODOULOU DIOMEDES'
p590
(dp591
g3
I0
sg4
g5
sg6
I0
sg7
I0
sg8
I00
sg9
g5
sg10
S'diomedes.christodoulou@enron.com'
p592
sg12
g5
sg13
I0
sg24
g5
sg25
I0
sg26
g5
sg27
I0
sg28
I0
sg29
g5
sg30
g5
sg31
I0
sg32
I6077885
sg33
I0
sg34
I0
sg35
I950730
sg36
g5
sg37
g5
sg38
I5127155
ssS'ALLEN PHILLIP K'
p593
(dp594
g3
I2902
sg4
I2869717
sg6
I0
sg7
I13868
sg8
I00
sg9
I-3081055
sg10
S'phillip.allen@enron.com'
p595
sg12
I304805
sg13
g14
(g18
S'\xef_o\x16\xdb\xa1.@'
p596
tp597
Rp598
sg24
I-126027
sg25
I1407
sg26
g5
sg27
I2195
sg28
I152
sg29
g5
sg30
I4175000
sg31
I0
sg32
I1729541
sg33
I47
sg34
I65
sg35
I126027
sg36
I201955
sg37
I4484442
sg38
I1729541
ssS'SHARP VICTORIA T'
p599
(dp600
g3
I3136
sg4
I187469
sg6
I0
sg7
I116337
sg8
I00
sg9
g5
sg10
S'vicki.sharp@enron.com'
p601
sg12
I422158
sg13
g14
(g18
S'\x05\xbc\xb9n\x9c\x8a,@'
p602
tp603
Rp604
sg24
g5
sg25
I2477
sg26
g5
sg27
I136
sg28
I2401
sg29
g5
sg30
I600000
sg31
I0
sg32
I494136
sg33
I24
sg34
I6
sg35
I213063
sg36
I248146
sg37
I1576511
sg38
I281073
ssS'JAEDICKE ROBERT'
p605
(dp606
g3
I0
sg4
g5
sg6
I0
sg7
I0
sg8
I00
sg9
I-25000
sg10
g5
sg12
g5
sg13
g14
(g18
S'\xcfrz\xa4\xd2\xab&@'
p607
tp608
Rp609
sg24
I-44093
sg25
I0
sg26
g5
sg27
I0
sg28
I0
sg29
I108750
sg30
g5
sg31
I0
sg32
I431750
sg33
I0
sg34
I0
sg35
I44093
sg36
g5
sg37
I83750
sg38
I431750
ssS'WINOKUR JR. HERBERT S'
p610
(dp611
g3
I0
sg4
g5
sg6
I0
sg7
I1413
sg8
I00
sg9
I-25000
sg10
g5
sg12
g5
sg13
g14
(g18
S'v\xd6\r&\\\xb3&@'
p612
tp613
Rp614
sg24
g5
sg25
I0
sg26
g5
sg27
I0
sg28
I0
sg29
I108579
sg30
g5
sg31
I0
sg32
g5
sg33
I0
sg34
I0
sg35
g5
sg36
g5
sg37
I84992
sg38
I0
ssS'BROWN MICHAEL'
p615
(dp616
g3
I1486
sg4
g5
sg6
I0
sg7
I49288
sg8
I00
sg9
g5
sg10
S'michael.brown@enron.com'
p617
sg12
g5
sg13
g14
(g18
S'\xfc\xfd\xe5\x18b\x9c%@'
p618
tp619
Rp620
sg24
g5
sg25
I761
sg26
g5
sg27
I41
sg28
I0
sg29
g5
sg30
g5
sg31
I0
sg32
g5
sg33
I13
sg34
I1
sg35
g5
sg36
g5
sg37
I49288
sg38
I0
ssS'BADUM JAMES P'
p621
(dp622
g3
I0
sg4
I178980
sg6
I0
sg7
I3486
sg8
I00
sg9
g5
sg10
g5
sg12
g5
sg13
g14
(g18
S'\x1dz\x95\t\x88:(@'
p623
tp624
Rp625
sg24
g5
sg25
I0
sg26
g5
sg27
I0
sg28
I0
sg29
g5
sg30
g5
sg31
I0
sg32
I257817
sg33
I0
sg34
I0
sg35
g5
sg36
g5
sg37
I182466
sg38
I257817
ssS'HUGHES JAMES A'
p626
(dp627
g3
I719
sg4
g5
sg6
I0
sg7
I0
sg8
I00
sg9
g5
sg10
S'james.hughes@enron.com'
p628
sg12
g5
sg13
I0
sg24
g5
sg25
I589
sg26
g5
sg27
I34
sg28
I0
sg29
g5
sg30
g5
sg31
I0
sg32
I1118394
sg33
I35
sg34
I5
sg35
I363428
sg36
g5
sg37
g5
sg38
I754966
ssS'REYNOLDS LAWRENCE'
p629
(dp630
g3
I0
sg4
I51365
sg6
I0
sg7
I8409
sg8
I00
sg9
I-200000
sg10
g5
sg12
I156250
sg13
g14
(g18
S'\xac\xe3I}G\xc5)@'
p631
tp632
Rp633
sg24
I-140264
sg25
I0
sg26
g5
sg27
I0
sg28
I202052
sg29
g5
sg30
I100000
sg31
I0
sg32
I4221891
sg33
I0
sg34
I0
sg35
I201483
sg36
I76399
sg37
I394475
sg38
I4160672
ssS'DIMICHELE RICHARD G'
p634
(dp635
g3
I0
sg4
g5
sg6
I0
sg7
I35812
sg8
I00
sg9
g5
sg10
S'richard.dimichele@enron.com'
p636
sg12
I694862
sg13
g14
(g18
S'\x04\x7f\x8c\x03\xf1Z-@'
p637
tp638
Rp639
sg24
g5
sg25
I0
sg26
g5
sg27
I0
sg28
I374689
sg29
g5
sg30
I1000000
sg31
I0
sg32
I8317782
sg33
I0
sg34
I0
sg35
I126027
sg36
I262788
sg37
I2368151
sg38
I8191755
ssS'BHATNAGAR SANJAY'
p640
(dp641
g3
I523
sg4
g5
sg6
I0
sg7
I0
sg8
I00
sg9
g5
sg10
S'sanjay.bhatnagar@enron.com'
p642
sg12
g5
sg13
g14
(g18
S'h\xbaL\xeb\xb3\x8d0@'
p643
tp644
Rp645
sg24
I15456290
sg25
I463
sg26
g5
sg27
I29
sg28
I137864
sg29
I137864
sg30
g5
sg31
I0
sS'total_stock_value'
p646
S'NaN'
p647
sg33
I0
sg34
I1
sg35
I-2604490
sg36
g5
sg37
I15456290
sg38
I2604490
ssS'CARTER REBECCA C'
p648
(dp649
g3
I312
sg4
g5
sg6
I0
sg7
I0
sg8
I00
sg9
I-159792
sg10
S'rebecca.carter@enron.com'
p650
sg12
I75000
sg13
g14
(g18
S'7i\xa2\xfc"\'*@'
p651
tp652
Rp653
sg24
I-307301
sg25
I196
sg26
g5
sg27
I15
sg28
I540
sg29
g5
sg30
I300000
sg31
I0
sg32
g5
sg33
I29
sg34
I7
sg35
I307301
sg36
I261809
sg37
I477557
sg38
I0
ssS'BUCHANAN HAROLD G'
p654
(dp655
g3
I1088
sg4
g5
sg6
I0
sg7
I600
sg8
I00
sg9
g5
sg10
S'john.buchanan@enron.com'
p656
sg12
I304805
sg13
g14
(g18
S'\xectT0\xc7\xbc+@'
p657
tp658
Rp659
sg24
g5
sg25
I23
sg26
g5
sg27
I125
sg28
I1215
sg29
g5
sg30
I500000
sg31
I0
sg32
I1014505
sg33
I0
sg34
I0
sg35
I189041
sg36
I248017
sg37
I1054637
sg38
I825464
ssS'YEAP SOON'
p660
(dp661
g3
I0
sg4
g5
sg6
I0
sg7
I55097
sg8
I00
sg9
g5
sg10
g5
sg12
g5
sg13
g14
(g18
S'u\x11Wom\xd5%@'
p662
tp663
Rp664
sg24
g5
sg25
I0
sg26
g5
sg27
I0
sg28
I0
sg29
g5
sg30
g5
sg31
I0
sg32
I192758
sg33
I0
sg34
I0
sg35
g5
sg36
g5
sg37
I55097
sg38
I192758
ssS'MURRAY JULIA H'
p665
(dp666
g3
I2192
sg4
g5
sg6
I0
sg7
I57580
sg8
I00
sg9
g5
sg10
S'julia.murray@enron.com'
p667
sg12
I125000
sg13
g14
(g18
S'\x18\xf6\x1e\x85\t7+@'
p668
tp669
Rp670
sg24
g5
sg25
I395
sg26
g5
sg27
I45
sg28
I330
sg29
g5
sg30
I400000
sg31
I0
sg32
I597461
sg33
I11
sg34
I2
sg35
I196983
sg36
I229284
sg37
I812194
sg38
I400478
ssS'GARLAND C KEVIN'
p671
(dp672
g3
I209
sg4
g5
sg6
I0
sg7
I48405
sg8
I00
sg9
g5
sg10
S'kevin.garland@enron.com'
p673
sg12
I375304
sg13
g14
(g18
S'\x9c\x05[\xddV\x87,@'
p674
tp675
Rp676
sg24
g5
sg25
I178
sg26
g5
sg27
I44
sg28
I60814
sg29
g5
sg30
I850000
sg31
I0
sg32
I896153
sg33
I10
sg34
I27
sg35
I259907
sg36
I231946
sg37
I1566469
sg38
I636246
ssS'DODSON KEITH'
p677
(dp678
g3
I176
sg4
g5
sg6
I0
sg7
I28164
sg8
I00
sg9
g5
sg10
S'keith.dodson@enron.com'
p679
sg12
g5
sg13
g14
(g18
S'\xe6P8\x80\x0eZ)@'
p680
tp681
Rp682
sg24
g5
sg25
I114
sg26
g5
sg27
I14
sg28
I774
sg29
g5
sg30
I70000
sg31
I0
sg32
g5
sg33
I10
sg34
I3
sg35
g5
sg36
I221003
sg37
I319941
sg38
I0
ssS'YEAGER F SCOTT'
p683
(dp684
g3
I0
sg4
g5
sg6
I0
sg7
I53947
sg8
I01
sg9
g5
sg10
S'scott.yeager@enron.com'
p685
sg12
g5
sg13
g14
(g18
S'\xe7\xba\xa1\xe8\xe1\x96)@'
p686
tp687
Rp688
sg24
g5
sg25
I0
sg26
g5
sg27
I0
sg28
I147950
sg29
g5
sg30
g5
sg31
I0
sg32
I11884758
sg33
I0
sg34
I0
sg35
I3576206
sg36
I158403
sg37
I360300
sg38
I8308552
ssS'HIRKO JOSEPH'
p689
(dp690
g3
I0
sg4
I10259
sg6
I0
sg7
I77978
sg8
I01
sg9
g5
sg10
S'joe.hirko@enron.com'
p691
sg12
g5
sg13
g14
(g18
S'\x13D\xbc\x8f\xda\xd6&@'
p692
tp693
Rp694
sg24
g5
sg25
I0
sg26
g5
sg27
I0
sg28
I2856
sg29
g5
sg30
g5
sg31
I0
sg32
I30766064
sg33
I0
sg34
I0
sg35
g5
sg36
g5
sg37
I91093
sg38
I30766064
ssS'DIETRICH JANET R'
p695
(dp696
g3
I2572
sg4
g5
sg6
I0
sg7
I3475
sg8
I00
sg9
g5
sg10
S'janet.dietrich@enron.com'
p697
sg12
I556416
sg13
g14
(g18
S"'\xcd$\xb7\xa0Q,@"
p698
tp699
Rp700
sg24
g5
sg25
I1902
sg26
g5
sg27
I63
sg28
I473
sg29
g5
sg30
I600000
sg31
I0
sg32
I1865087
sg33
I305
sg34
I14
sg35
I315068
sg36
I250100
sg37
I1410464
sg38
I1550019
ssS'DERRICK JR. JAMES V'
p701
(dp702
g3
I2181
sg4
g5
sg6
I0
sg7
I51124
sg8
I00
sg9
I-1284000
sg10
S'james.derrick@enron.com'
p703
sg12
I484000
sg13
g14
(g18
S'\x99\xec*|\\p*@'
p704
tp705
Rp706
sg24
I-1787380
sg25
I1401
sg26
g5
sg27
I909
sg28
I7482
sg29
g5
sg30
I800000
sg31
I0
sg32
I8831913
sg33
I64
sg34
I20
sg35
I1787380
sg36
I492375
sg37
I550981
sg38
I8831913
ssS'FREVERT MARK A'
p707
(dp708
g3
I3275
sg4
I6426990
sg6
I0
sg7
I86987
sg8
I00
sg9
I-3367011
sg10
S'mark.frevert@enron.com'
p709
sg12
I1617011
sg13
g14
(g18
S'\x94\xbb\xb7 \xd9\xa90@'
p710
tp711
Rp712
sg24
g5
sg25
I2979
sg26
I2000000
sg27
I21
sg28
I7427621
sg29
g5
sg30
I2000000
sg31
I0
sg32
I14622185
sg33
I242
sg34
I6
sg35
I4188667
sg36
I1060932
sg37
I17252530
sg38
I10433518
ssS'PAI LOU L'
p713
(dp714
g3
I0
sg4
g5
sg6
I0
sg7
I32047
sg8
I00
sg9
g5
sg10
S'lou.pai@enron.com'
p715
sg12
g5
sg13
g14
(g18
S'O]\xd6\xb0\xaa\xe8-@'
p716
tp717
Rp718
sg24
g5
sg25
I0
sg26
g5
sg27
I0
sg28
I1829457
sg29
g5
sg30
I1000000
sg31
I0
sg32
I23817930
sg33
I0
sg34
I0
sg35
I8453763
sg36
I261879
sg37
I3123383
sg38
I15364167
ssS'BAY FRANKLIN R'
p719
(dp720
g3
I0
sg4
I260455
sg6
I0
sg7
I129142
sg8
I00
sg9
I-201641
sg10
S'frank.bay@enron.com'
p721
sg12
g5
sg13
g14
(g18
S'er\x03\xa9\xb7@+@'
p722
tp723
Rp724
sg24
I-82782
sg25
I0
sg26
g5
sg27
I0
sg28
I69
sg29
g5
sg30
I400000
sg31
I0
sg32
I63014
sg33
I0
sg34
I0
sg35
I145796
sg36
I239671
sg37
I827696
sg38
I0
ssS'HAYSLETT RODERICK J'
p725
(dp726
g3
I2649
sg4
g5
sg6
I0
sg7
I0
sg8
I00
sg9
g5
sg10
S'rod.hayslett@enron.com'
p727
sg12
g5
sg13
I0
sg24
g5
sg25
I571
sg26
g5
sg27
I1061
sg28
I0
sg29
g5
sg30
g5
sg31
I0
sg32
I346663
sg33
I35
sg34
I38
sg35
I346663
sg36
g5
sg37
g5
sg38
I0
ssS'FUGH JOHN L'
p728
(dp729
g3
I0
sg4
I50591
sg6
I0
sg7
I0
sg8
I00
sg9
g5
sg10
g5
sg12
g5
sg13
g14
(g18
S'\xed\xa9h*\xbe\xa9%@'
p730
tp731
Rp732
sg24
g5
sg25
I0
sg26
g5
sg27
I0
sg28
I0
sg29
g5
sg30
g5
sg31
I0
sg32
I176378
sg33
I0
sg34
I0
sg35
g5
sg36
g5
sg37
I50591
sg38
I176378
ssS'FALLON JAMES B'
p733
(dp734
g3
I1755
sg4
g5
sg6
I0
sg7
I95924
sg8
I00
sg9
g5
sg10
S'jim.fallon@enron.com'
p735
sg12
I374347
sg13
g14
(g18
S'\xcc\xeb:\x8e\x1f<.@'
p736
tp737
Rp738
sg24
g5
sg25
I1604
sg26
g5
sg27
I75
sg28
I401481
sg29
g5
sg30
I2500000
sg31
I0
sg32
I2332399
sg33
I42
sg34
I37
sg35
I1392142
sg36
I304588
sg37
I3676340
sg38
I940257
ssS'KOENIG MARK E'
p739
(dp740
g3
I2374
sg4
g5
sg6
I0
sg7
I127017
sg8
I01
sg9
g5
sg10
S'mark.koenig@enron.com'
p741
sg12
I300000
sg13
g14
(g18
S'3\x97-_$\x8e,@'
p742
tp743
Rp744
sg24
g5
sg25
I2271
sg26
g5
sg27
I61
sg28
I150458
sg29
g5
sg30
I700000
sg31
I0
sg32
I1920055
sg33
I53
sg34
I15
sg35
I1248318
sg36
I309946
sg37
I1587421
sg38
I671737
ssS'SAVAGE FRANK'
p745
(dp746
g3
I0
sg4
g5
sg6
I0
sg7
I0
sg8
I00
sg9
I-121284
sg10
g5
sg12
g5
sg13
g14
(g18
S'\x9a\n<{\x82u @'
p747
tp748
Rp749
sg24
g5
sg25
I0
sg26
g5
sg27
I0
sg28
I0
sg29
I125034
sg30
g5
sg31
I0
sg32
g5
sg33
I0
sg34
I0
sg35
g5
sg36
g5
sg37
I3750
sg38
I0
ssS'IZZO LAWRENCE L'
p750
(dp751
g3
I496
sg4
g5
sg6
I0
sg7
I28093
sg8
I00
sg9
g5
sg10
S'larry.izzo@enron.com'
p752
sg12
I312500
sg13
g14
(g18
S'\x1ax\x07\xb9.\xff,@'
p753
tp754
Rp755
sg24
g5
sg25
I437
sg26
g5
sg27
I19
sg28
I1553729
sg29
g5
sg30
g5
sg31
I0
sg32
I5819980
sg33
I28
sg34
I5
sg35
I3654808
sg36
I85274
sg37
I1979596
sg38
I2165172
ssS'TILNEY ELIZABETH A'
p756
(dp757
g3
I460
sg4
g5
sg6
I0
sg7
I0
sg8
I00
sg9
I-575000
sg10
S'elizabeth.tilney@enron.com'
p758
sg12
I275000
sg13
g14
(g18
S'\xa1\xb4\xfb|\x9f\xcb)@'
p759
tp760
Rp761
sg24
g5
sg25
I379
sg26
g5
sg27
I19
sg28
I152055
sg29
g5
sg30
I300000
sg31
I0
sg32
I1168042
sg33
I10
sg34
I11
sg35
I576792
sg36
I247338
sg37
I399393
sg38
I591250
ssS'MARTIN AMANDA K'
p762
(dp763
g3
I1522
sg4
I85430
sg6
I0
sg7
I8211
sg8
I00
sg9
g5
sg10
S'a..martin@enron.com'
p764
sg12
I5145434
sg13
g14
(g18
S'8\xdf\xdb\x9d\x9f\xe3/@'
p765
tp766
Rp767
sg24
g5
sg25
I477
sg26
g5
sg27
I230
sg28
I2818454
sg29
g5
sg30
g5
sg31
I0
sg32
I2070306
sg33
I8
sg34
I0
sg35
g5
sg36
I349487
sg37
I8407016
sg38
I2070306
ssS'BUY RICHARD B'
p768
(dp769
g3
I3523
sg4
I649584
sg6
I0
sg7
I0
sg8
I00
sg9
I-694862
sg10
S'rick.buy@enron.com'
p770
sg12
I769862
sg13
g14
(g18
S'\\C\xe1+>X-@'
p771
tp772
Rp773
sg24
g5
sg25
I2333
sg26
g5
sg27
I1053
sg28
I400572
sg29
g5
sg30
I900000
sg31
I0
sg32
I3444470
sg33
I156
sg34
I71
sg35
I901657
sg36
I330546
sg37
I2355702
sg38
I2542813
ssS'GRAMM WENDY L'
p774
(dp775
g3
I0
sg4
g5
sg6
I0
sg7
I0
sg8
I00
sg9
g5
sg10
g5
sg12
g5
sg13
g14
(g18
S"x\xa7q\xcd\xef`'@"
p776
tp777
Rp778
sg24
g5
sg25
I0
sg26
g5
sg27
I0
sg28
I0
sg29
I119292
sg30
g5
sg31
I0
sg32
g5
sg33
I0
sg34
I0
sg35
g5
sg36
g5
sg37
I119292
sg38
I0
ssS'CAUSEY RICHARD A'
p779
(dp780
g3
I1892
sg4
g5
sg6
I0
sg7
I30674
sg8
I01
sg9
I-235000
sg10
S'richard.causey@enron.com'
p781
sg12
I350000
sg13
g14
(g18
S'\x9b\xce\xc9\x84\xae\xe1,@'
p782
tp783
Rp784
sg24
g5
sg25
I1585
sg26
g5
sg27
I49
sg28
I307895
sg29
g5
sg30
I1000000
sg31
I0
sg32
I2502063
sg33
I58
sg34
I12
sg35
I2502063
sg36
I415189
sg37
I1868758
sg38
I0
ssS'TAYLOR MITCHELL S'
p785
(dp786
g3
I533
sg4
I227449
sg6
I0
sg7
I0
sg8
I00
sg9
g5
sg10
S'mitchell.taylor@enron.com'
p787
sg12
g5
sg13
g14
(g18
S'jo\xb6\xea\xe9\xce+@'
p788
tp789
Rp790
sg24
g5
sg25
I300
sg26
g5
sg27
I29
sg28
I0
sg29
g5
sg30
I600000
sg31
I0
sg32
I3745048
sg33
I0
sg34
I0
sg35
I563798
sg36
I265214
sg37
I1092663
sg38
I3181250
ssS'DONAHUE JR JEFFREY M'
p791
(dp792
g3
I865
sg4
g5
sg6
I0
sg7
I96268
sg8
I00
sg9
I-300000
sg10
S'jeff.donahue@enron.com'
p793
sg12
g5
sg13
g14
(g18
S'\x12\xd1L+\x9e]+@'
p794
tp795
Rp796
sg24
g5
sg25
I772
sg26
g5
sg27
I22
sg28
I891
sg29
g5
sg30
I800000
sg31
I0
sg32
I1080988
sg33
I188
sg34
I11
sg35
I315068
sg36
I278601
sg37
I875760
sg38
I765920
ssS'GLISAN JR BEN F'
p797
(dp798
g3
I873
sg4
g5
sg6
I0
sg7
I125978
sg8
I01
sg9
g5
sg10
S'ben.glisan@enron.com'
p799
sg12
I71023
sg13
g14
(g18
S'u\x82\xd5\x88\xd6\x1c,@'
p800
tp801
Rp802
sg24
g5
sg25
I874
sg26
g5
sg27
I16
sg28
I200308
sg29
g5
sg30
I600000
sg31
I0
sg32
I778546
sg33
I52
sg34
I6
sg35
I393818
sg36
I274975
sg37
I1272284
sg38
I384728
ss.